target datalayout = "e-m:e-p270:32:32-p271:32:32-p272:64:64-i64:64-i128:128-f80:128-n8:16:32:64-S128"
target triple = "x86_64-unknown-linux-gnu"

%"class.icu_75::Locale" = type <{ %"class.icu_75::UObject", [12 x i8], [6 x i8], [4 x i8], [2 x i8], i32, [4 x i8], ptr, [157 x i8], [3 x i8], ptr, i8, [7 x i8] }>
%"class.icu_75::UObject" = type { ptr }

; Function Attrs: mustprogress uwtable
define noundef nonnull align 8 dereferenceable(217) ptr @_ZN6icu_756Locale9getLocaleEi(i32 noundef %locid) #1 align 2 {
entry:
  %locid.addr = alloca i32, align 4
  %localeCache = alloca ptr, align 8
  store i32 %locid, ptr %locid.addr, align 4
  %call = call noundef ptr @_ZN6icu_756Locale14getLocaleCacheEv()
  store ptr %call, ptr %localeCache, align 8
  %0 = load ptr, ptr %localeCache, align 8
  %cmp = icmp eq ptr %0, null
  br i1 %cmp, label %if.then, label %if.end

if.then:                                          ; preds = %entry
  store i32 0, ptr %locid.addr, align 4
  br label %if.end

if.end:                                           ; preds = %if.then, %entry
  %1 = load ptr, ptr %localeCache, align 8
  %2 = load i32, ptr %locid.addr, align 4
  %idxprom = sext i32 %2 to i64
  %arrayidx = getelementptr inbounds %"class.icu_75::Locale", ptr %1, i64 %idxprom
  ret ptr %arrayidx
}