; Function Attrs: mustprogress uwtable
define noundef nonnull align 8 dereferenceable(217) ptr @_ZN6icu_756Locale9getLocaleEi(i32 noundef %locid) local_unnamed_addr #1 align 2 {
entry:
  %call = tail call noundef ptr @_ZN6icu_756Locale14getLocaleCacheEv()
  %cmp = icmp eq ptr %call, null
  %0 = sext i32 %locid to i64
  %idxprom = select i1 %cmp, i64 0, i64 %0
  %arrayidx = getelementptr inbounds %"class.icu_75::Locale", ptr %call, i64 %idxprom
  ret ptr %arrayidx
}